#include <math.h>
#include <stdio.h>
#include <stdlib.h>
#include <string.h>

int main(int argc, char* argv[])
{
	int a,b=0;
	scanf("%d",&a);
    while(a>9)
	{
		b=(a-a/10*10)*10+b*10;
		a=a/10;
	}
	b=b+a;
	printf("%d",b);
	return 0;
}

