; ModuleID = '56/545.c'
source_filename = "56/545.c"
target datalayout = "e-m:e-p270:32:32-p271:32:32-p272:64:64-i64:64-f80:128-n8:16:32:64-S128"
target triple = "x86_64-pc-linux-gnu"

@.str = private unnamed_addr constant [3 x i8] c"%d\00", align 1

; Function Attrs: noinline nounwind uwtable
define dso_local i32 @main(i32 %0, i8** %1) #0 {
  %3 = alloca i32, align 4
  %4 = alloca i32, align 4
  %5 = alloca i8**, align 8
  %6 = alloca i32, align 4
  %7 = alloca i32, align 4
  store i32 0, i32* %3, align 4
  store i32 %0, i32* %4, align 4
  store i8** %1, i8*** %5, align 8
  store i32 0, i32* %7, align 4
  %8 = call i32 (i8*, ...) @__isoc99_scanf(i8* getelementptr inbounds ([3 x i8], [3 x i8]* @.str, i64 0, i64 0), i32* %6)
  br label %9

9:                                                ; preds = %12, %2
  %10 = load i32, i32* %6, align 4
  %11 = icmp sgt i32 %10, 9
  br i1 %11, label %12, label %24

12:                                               ; preds = %9
  %13 = load i32, i32* %6, align 4
  %14 = load i32, i32* %6, align 4
  %15 = sdiv i32 %14, 10
  %16 = mul nsw i32 %15, 10
  %17 = sub nsw i32 %13, %16
  %18 = mul nsw i32 %17, 10
  %19 = load i32, i32* %7, align 4
  %20 = mul nsw i32 %19, 10
  %21 = add nsw i32 %18, %20
  store i32 %21, i32* %7, align 4
  %22 = load i32, i32* %6, align 4
  %23 = sdiv i32 %22, 10
  store i32 %23, i32* %6, align 4
  br label %9

24:                                               ; preds = %9
  %25 = load i32, i32* %7, align 4
  %26 = load i32, i32* %6, align 4
  %27 = add nsw i32 %25, %26
  store i32 %27, i32* %7, align 4
  %28 = load i32, i32* %7, align 4
  %29 = call i32 (i8*, ...) @printf(i8* getelementptr inbounds ([3 x i8], [3 x i8]* @.str, i64 0, i64 0), i32 %28)
  ret i32 0
}

declare dso_local i32 @__isoc99_scanf(i8*, ...) #1

declare dso_local i32 @printf(i8*, ...) #1


!llvm.module.flags = !{!0}
!llvm.ident = !{!1}

!0 = !{i32 1, !"wchar_size", i32 4}
!1 = !{!"clang version 10.0.0-4ubuntu1 "}
